(dp0
S'I3D_PLATFORM_IPHONE'
p1
NsS'I3D_OS_IPHONE'
p2
NsS'IW_DEBUG'
p3
NsS'IW_MKF_CGADMOB_BUILD'
p4
NsS'IW_SDK'
p5
NsS'S3E_EXT_CGADMOB'
p6
NsS'IW_USE_ASSERTIONS'
p7
NsS'__IPHONE_OS_VERSION_MIN_REQUIRED'
p8
S'43000'
p9
sS'IW_PLATFORM_IPHONE'
p10
NsS'IW_USE_TRACING'
p11
NsS'IW_TRACE_CHANNEL_CGADMOB'
p12
S'1'
p13
sS'S3E_BUILD_EXT'
p14
NsS'IW_MKF_S3E_DEFAULT'
p15
NsS'IW_TRACE_CHANNEL_CGADMOB_VERBOSE'
p16
S'2'
p17
sS'IW_MKF_EDK'
p18
NsS'I3D_ARCH_ARM'
p19
NsS'IW_ASSERTION_CHANNEL_CGADMOB'
p20
g13
s.