(dp0
S'I3D_OS_LINUX'
p1
NsS'IW_PLATFORM_LINUX'
p2
NsS'I3D_ARCH_ARM'
p3
NsS'IW_MKF_CGADMOB_BUILD'
p4
NsS'IW_SDK'
p5
NsS'S3E_EXT_CGADMOB'
p6
NsS'IW_USE_ASSERTIONS'
p7
NsS'IW_USE_TRACING'
p8
NsS'S3E_ANDROID'
p9
NsS'IW_TRACE_CHANNEL_CGADMOB'
p10
S'1'
p11
sS'S3E_BUILD_EXT'
p12
NsS'ANDROID'
p13
NsS'IW_MKF_S3E_DEFAULT'
p14
NsS'IW_TRACE_CHANNEL_CGADMOB_VERBOSE'
p15
S'2'
p16
sS'IW_MKF_EDK'
p17
NsS'I3D_PLATFORM_LINUX'
p18
NsS'IW_DEBUG'
p19
NsS'IW_ASSERTION_CHANNEL_CGADMOB'
p20
g11
s.